Certificate:
    Data:
        Version: 3 (0x2)
        Serial Number: 1 (0x1)
    Signature Algorithm: sha384WithRSAEncryption
        Issuer: CN=xCAT CA
        Validity
            Not Before: Jan  1 01:01:01 1970 GMT
            Not After : Sep 30 02:22:04 2041 GMT
        Subject: CN=xCAT CA
        Subject Public Key Info:
            Public Key Algorithm: rsaEncryption
                Public-Key: (2048 bit)
                Modulus:
                    00:d3:6e:a4:d1:84:6b:63:d4:37:bc:f6:a5:08:af:
                    1a:01:e0:b3:d7:99:df:ef:ef:43:2d:d7:c6:09:1d:
                    9f:53:b9:91:eb:12:c2:b8:5d:7d:2f:80:40:a4:bb:
                    3b:11:c6:3f:88:b1:8b:21:45:23:ba:53:28:15:c8:
                    cb:49:75:ee:b8:e8:1c:3b:e5:6f:4f:b2:c1:8a:af:
                    0b:b7:14:1b:03:0d:3d:84:6c:90:a0:ac:7b:3d:c7:
                    c0:e4:b6:43:4a:44:ea:80:21:c3:66:00:f6:88:1e:
                    ae:e7:17:db:19:fe:af:b9:be:34:ba:12:dc:e7:6a:
                    f2:40:ee:9c:b4:27:80:87:d4:fa:3b:91:10:13:5e:
                    f4:55:39:06:d5:8b:da:54:bb:ee:1e:72:b3:60:e1:
                    bf:44:f0:dd:0e:40:96:fc:95:d5:5a:fa:6a:b1:55:
                    0d:c1:79:8e:19:d6:82:5e:12:1d:c1:52:d3:e7:5e:
                    3e:66:8a:aa:24:40:16:88:9c:6b:e6:39:95:9a:6c:
                    f0:00:2c:7a:83:53:8c:2e:56:12:76:27:71:a9:25:
                    5f:b7:a8:f8:cd:40:ba:04:ee:b0:10:b9:36:52:3a:
                    df:a7:f6:e0:b5:e9:de:74:52:a8:13:37:78:8b:7b:
                    3d:d0:26:07:3c:d8:77:eb:8c:f1:4a:22:10:3e:0a:
                    c4:df
                Exponent: 65537 (0x10001)
        X509v3 extensions:
            X509v3 Subject Key Identifier: 
                4F:23:F4:A7:34:EE:5A:CB:4E:A3:88:50:C2:50:62:E5:D7:62:54:A3
            X509v3 Authority Key Identifier: 
                keyid:4F:23:F4:A7:34:EE:5A:CB:4E:A3:88:50:C2:50:62:E5:D7:62:54:A3

            X509v3 Basic Constraints: critical
                CA:TRUE
            X509v3 Key Usage: 
                Certificate Sign, CRL Sign
            Netscape Cert Type: 
                SSL CA, S/MIME CA
    Signature Algorithm: sha384WithRSAEncryption
         4c:d7:f0:31:5e:6b:1c:67:ee:96:9e:19:8c:13:7b:4f:29:96:
         95:9a:be:7b:6c:2e:83:a4:5b:83:ba:5f:20:01:d7:32:71:fe:
         6d:88:28:39:60:27:95:22:ff:5a:72:c2:ef:a8:be:59:d7:60:
         2d:e6:22:cf:a4:e6:43:7a:97:dc:87:a0:ce:3b:48:51:c1:61:
         8f:ed:d8:04:86:72:bb:23:d9:06:0c:9d:0d:61:03:94:dc:3f:
         bc:ae:e2:cb:1a:89:8e:bd:f6:4e:92:ce:d5:6e:8f:a7:b1:53:
         62:8c:24:25:f3:c9:b3:76:2f:a0:7f:a9:8d:a8:93:a4:35:eb:
         df:d6:41:15:72:2d:3c:8f:b1:3b:29:f8:c3:2c:3d:24:f2:64:
         aa:e0:fe:ad:b0:46:f4:32:a6:73:17:a1:33:97:8b:71:76:7c:
         97:9c:ae:03:c0:ad:d8:ec:93:4a:52:ef:04:16:a6:2d:bf:7d:
         75:1a:f9:69:4c:15:f7:b8:71:8c:04:41:72:c3:d5:92:72:fe:
         1e:04:f7:cf:11:36:d4:5c:55:41:a9:7d:83:f5:96:19:c5:b7:
         95:14:c0:5c:e7:c7:ef:cb:20:d0:04:41:b7:18:4c:c4:84:e9:
         25:70:6b:11:82:f6:37:68:b2:8e:36:c1:ba:75:16:a9:09:cf:
         a0:7c:2c:c0
-----BEGIN CERTIFICATE-----
MIIDEjCCAfqgAwIBAgIBATANBgkqhkiG9w0BAQwFADASMRAwDgYDVQQDDAd4Q0FU
IENBMB4XDTcwMDEwMTAxMDEwMVoXDTQxMDkzMDAyMjIwNFowEjEQMA4GA1UEAwwH
eENBVCBDQTCCASIwDQYJKoZIhvcNAQEBBQADggEPADCCAQoCggEBANNupNGEa2PU
N7z2pQivGgHgs9eZ3+/vQy3Xxgkdn1O5kesSwrhdfS+AQKS7OxHGP4ixiyFFI7pT
KBXIy0l17rjoHDvlb0+ywYqvC7cUGwMNPYRskKCsez3HwOS2Q0pE6oAhw2YA9oge
rucX2xn+r7m+NLoS3Odq8kDunLQngIfU+juREBNe9FU5BtWL2lS77h5ys2Dhv0Tw
3Q5AlvyV1Vr6arFVDcF5jhnWgl4SHcFS0+dePmaKqiRAFoica+Y5lZps8AAseoNT
jC5WEnYncaklX7eo+M1AugTusBC5NlI636f24LXp3nRSqBM3eIt7PdAmBzzYd+uM
8UoiED4KxN8CAwEAAaNzMHEwHQYDVR0OBBYEFE8j9Kc07lrLTqOIUMJQYuXXYlSj
MB8GA1UdIwQYMBaAFE8j9Kc07lrLTqOIUMJQYuXXYlSjMA8GA1UdEwEB/wQFMAMB
Af8wCwYDVR0PBAQDAgEGMBEGCWCGSAGG+EIBAQQEAwIBBjANBgkqhkiG9w0BAQwF
AAOCAQEATNfwMV5rHGfulp4ZjBN7TymWlZq+e2wug6Rbg7pfIAHXMnH+bYgoOWAn
lSL/WnLC76i+WddgLeYiz6TmQ3qX3IegzjtIUcFhj+3YBIZyuyPZBgydDWEDlNw/
vK7iyxqJjr32TpLO1W6Pp7FTYowkJfPJs3YvoH+pjaiTpDXr39ZBFXItPI+xOyn4
wyw9JPJkquD+rbBG9DKmcxehM5eLcXZ8l5yuA8Ct2OyTSlLvBBamLb99dRr5aUwV
97hxjARBcsPVknL+HgT3zxE21FxVQal9g/WWGcW3lRTAXOfH78sg0ARBtxhMxITp
JXBrEYL2N2iyjjbBunUWqQnPoHwswA==
-----END CERTIFICATE-----
